target datalayout = "e-m:e-p270:32:32-p271:32:32-p272:64:64-i64:64-i128:128-f80:128-n8:16:32:64-S128"
target triple = "x86_64-pc-linux-gnu"

; Function Attrs: alwaysinline nounwind willreturn memory(none) uwtable
define internal zeroext i8 @av_clip_uint8_c(i32 noundef %0) #3 {
  %2 = alloca i8, align 1
  %3 = alloca i32, align 4
  store i32 %0, ptr %3, align 4, !tbaa !15
  %4 = load i32, ptr %3, align 4, !tbaa !15
  %5 = and i32 %4, -256
  %6 = icmp ne i32 %5, 0
  br i1 %6, label %7, label %12

7:                                                ; preds = %1
  %8 = load i32, ptr %3, align 4, !tbaa !15
  %9 = xor i32 %8, -1
  %10 = ashr i32 %9, 31
  %11 = trunc i32 %10 to i8
  store i8 %11, ptr %2, align 1
  br label %15

12:                                               ; preds = %1
  %13 = load i32, ptr %3, align 4, !tbaa !15
  %14 = trunc i32 %13 to i8
  store i8 %14, ptr %2, align 1
  br label %15

15:                                               ; preds = %12, %7
  %16 = load i8, ptr %2, align 1
  ret i8 %16
}

; Function Attrs: alwaysinline nounwind uwtable
define internal void @do_8tap_1d_c(ptr noundef %0, i64 noundef %1, ptr noundef %2, i64 noundef %3, i32 noundef %4, i32 noundef %5, i64 noundef %6, ptr noundef %7, i32 noundef %8) #6 {
  %10 = alloca ptr, align 8
  %11 = alloca i64, align 8
  %12 = alloca ptr, align 8
  %13 = alloca i64, align 8
  %14 = alloca i32, align 4
  %15 = alloca i32, align 4
  %16 = alloca i64, align 8
  %17 = alloca ptr, align 8
  %18 = alloca i32, align 4
  %19 = alloca ptr, align 8
  %20 = alloca ptr, align 8
  %21 = alloca i32, align 4
  store ptr %0, ptr %10, align 8, !tbaa !10
  store i64 %1, ptr %11, align 8, !tbaa !12
  store ptr %2, ptr %12, align 8, !tbaa !10
  store i64 %3, ptr %13, align 8, !tbaa !12
  store i32 %4, ptr %14, align 4, !tbaa !15
  store i32 %5, ptr %15, align 4, !tbaa !15
  store i64 %6, ptr %16, align 8, !tbaa !12
  store ptr %7, ptr %17, align 8, !tbaa !88
  store i32 %8, ptr %18, align 4, !tbaa !15
  call void @llvm.lifetime.start.p0(i64 8, ptr %19) #10
  %22 = load ptr, ptr %10, align 8, !tbaa !10
  store ptr %22, ptr %19, align 8, !tbaa !10
  call void @llvm.lifetime.start.p0(i64 8, ptr %20) #10
  %23 = load ptr, ptr %12, align 8, !tbaa !10
  store ptr %23, ptr %20, align 8, !tbaa !10
  %24 = load i64, ptr %11, align 8, !tbaa !12
  %25 = udiv i64 %24, 1
  store i64 %25, ptr %11, align 8, !tbaa !12
  %26 = load i64, ptr %13, align 8, !tbaa !12
  %27 = udiv i64 %26, 1
  store i64 %27, ptr %13, align 8, !tbaa !12
  br label %28

28:                                               ; preds = %312, %9
  call void @llvm.lifetime.start.p0(i64 4, ptr %21) #10
  store i32 0, ptr %21, align 4, !tbaa !15
  br label %29

29:                                               ; preds = %302, %28
  %30 = load i32, ptr %21, align 4, !tbaa !15
  %31 = load i32, ptr %14, align 4, !tbaa !15
  %32 = icmp slt i32 %30, %31
  br i1 %32, label %33, label %305

33:                                               ; preds = %29
  %34 = load i32, ptr %18, align 4, !tbaa !15
  %35 = icmp ne i32 %34, 0
  br i1 %35, label %36, label %174

36:                                               ; preds = %33
  %37 = load ptr, ptr %19, align 8, !tbaa !10
  %38 = load i32, ptr %21, align 4, !tbaa !15
  %39 = sext i32 %38 to i64
  %40 = getelementptr inbounds i8, ptr %37, i64 %39
  %41 = load i8, ptr %40, align 1, !tbaa !14
  %42 = zext i8 %41 to i32
  %43 = load ptr, ptr %17, align 8, !tbaa !88
  %44 = getelementptr inbounds i16, ptr %43, i64 0
  %45 = load i16, ptr %44, align 2, !tbaa !90
  %46 = sext i16 %45 to i32
  %47 = load ptr, ptr %20, align 8, !tbaa !10
  %48 = load i32, ptr %21, align 4, !tbaa !15
  %49 = sext i32 %48 to i64
  %50 = load i64, ptr %16, align 8, !tbaa !12
  %51 = mul nsw i64 -3, %50
  %52 = add nsw i64 %49, %51
  %53 = getelementptr inbounds i8, ptr %47, i64 %52
  %54 = load i8, ptr %53, align 1, !tbaa !14
  %55 = zext i8 %54 to i32
  %56 = mul nsw i32 %46, %55
  %57 = load ptr, ptr %17, align 8, !tbaa !88
  %58 = getelementptr inbounds i16, ptr %57, i64 1
  %59 = load i16, ptr %58, align 2, !tbaa !90
  %60 = sext i16 %59 to i32
  %61 = load ptr, ptr %20, align 8, !tbaa !10
  %62 = load i32, ptr %21, align 4, !tbaa !15
  %63 = sext i32 %62 to i64
  %64 = load i64, ptr %16, align 8, !tbaa !12
  %65 = mul nsw i64 -2, %64
  %66 = add nsw i64 %63, %65
  %67 = getelementptr inbounds i8, ptr %61, i64 %66
  %68 = load i8, ptr %67, align 1, !tbaa !14
  %69 = zext i8 %68 to i32
  %70 = mul nsw i32 %60, %69
  %71 = add nsw i32 %56, %70
  %72 = load ptr, ptr %17, align 8, !tbaa !88
  %73 = getelementptr inbounds i16, ptr %72, i64 2
  %74 = load i16, ptr %73, align 2, !tbaa !90
  %75 = sext i16 %74 to i32
  %76 = load ptr, ptr %20, align 8, !tbaa !10
  %77 = load i32, ptr %21, align 4, !tbaa !15
  %78 = sext i32 %77 to i64
  %79 = load i64, ptr %16, align 8, !tbaa !12
  %80 = mul nsw i64 -1, %79
  %81 = add nsw i64 %78, %80
  %82 = getelementptr inbounds i8, ptr %76, i64 %81
  %83 = load i8, ptr %82, align 1, !tbaa !14
  %84 = zext i8 %83 to i32
  %85 = mul nsw i32 %75, %84
  %86 = add nsw i32 %71, %85
  %87 = load ptr, ptr %17, align 8, !tbaa !88
  %88 = getelementptr inbounds i16, ptr %87, i64 3
  %89 = load i16, ptr %88, align 2, !tbaa !90
  %90 = sext i16 %89 to i32
  %91 = load ptr, ptr %20, align 8, !tbaa !10
  %92 = load i32, ptr %21, align 4, !tbaa !15
  %93 = sext i32 %92 to i64
  %94 = load i64, ptr %16, align 8, !tbaa !12
  %95 = mul nsw i64 0, %94
  %96 = add nsw i64 %93, %95
  %97 = getelementptr inbounds i8, ptr %91, i64 %96
  %98 = load i8, ptr %97, align 1, !tbaa !14
  %99 = zext i8 %98 to i32
  %100 = mul nsw i32 %90, %99
  %101 = add nsw i32 %86, %100
  %102 = load ptr, ptr %17, align 8, !tbaa !88
  %103 = getelementptr inbounds i16, ptr %102, i64 4
  %104 = load i16, ptr %103, align 2, !tbaa !90
  %105 = sext i16 %104 to i32
  %106 = load ptr, ptr %20, align 8, !tbaa !10
  %107 = load i32, ptr %21, align 4, !tbaa !15
  %108 = sext i32 %107 to i64
  %109 = load i64, ptr %16, align 8, !tbaa !12
  %110 = mul nsw i64 1, %109
  %111 = add nsw i64 %108, %110
  %112 = getelementptr inbounds i8, ptr %106, i64 %111
  %113 = load i8, ptr %112, align 1, !tbaa !14
  %114 = zext i8 %113 to i32
  %115 = mul nsw i32 %105, %114
  %116 = add nsw i32 %101, %115
  %117 = load ptr, ptr %17, align 8, !tbaa !88
  %118 = getelementptr inbounds i16, ptr %117, i64 5
  %119 = load i16, ptr %118, align 2, !tbaa !90
  %120 = sext i16 %119 to i32
  %121 = load ptr, ptr %20, align 8, !tbaa !10
  %122 = load i32, ptr %21, align 4, !tbaa !15
  %123 = sext i32 %122 to i64
  %124 = load i64, ptr %16, align 8, !tbaa !12
  %125 = mul nsw i64 2, %124
  %126 = add nsw i64 %123, %125
  %127 = getelementptr inbounds i8, ptr %121, i64 %126
  %128 = load i8, ptr %127, align 1, !tbaa !14
  %129 = zext i8 %128 to i32
  %130 = mul nsw i32 %120, %129
  %131 = add nsw i32 %116, %130
  %132 = load ptr, ptr %17, align 8, !tbaa !88
  %133 = getelementptr inbounds i16, ptr %132, i64 6
  %134 = load i16, ptr %133, align 2, !tbaa !90
  %135 = sext i16 %134 to i32
  %136 = load ptr, ptr %20, align 8, !tbaa !10
  %137 = load i32, ptr %21, align 4, !tbaa !15
  %138 = sext i32 %137 to i64
  %139 = load i64, ptr %16, align 8, !tbaa !12
  %140 = mul nsw i64 3, %139
  %141 = add nsw i64 %138, %140
  %142 = getelementptr inbounds i8, ptr %136, i64 %141
  %143 = load i8, ptr %142, align 1, !tbaa !14
  %144 = zext i8 %143 to i32
  %145 = mul nsw i32 %135, %144
  %146 = add nsw i32 %131, %145
  %147 = load ptr, ptr %17, align 8, !tbaa !88
  %148 = getelementptr inbounds i16, ptr %147, i64 7
  %149 = load i16, ptr %148, align 2, !tbaa !90
  %150 = sext i16 %149 to i32
  %151 = load ptr, ptr %20, align 8, !tbaa !10
  %152 = load i32, ptr %21, align 4, !tbaa !15
  %153 = sext i32 %152 to i64
  %154 = load i64, ptr %16, align 8, !tbaa !12
  %155 = mul nsw i64 4, %154
  %156 = add nsw i64 %153, %155
  %157 = getelementptr inbounds i8, ptr %151, i64 %156
  %158 = load i8, ptr %157, align 1, !tbaa !14
  %159 = zext i8 %158 to i32
  %160 = mul nsw i32 %150, %159
  %161 = add nsw i32 %146, %160
  %162 = add nsw i32 %161, 64
  %163 = ashr i32 %162, 7
  %164 = call zeroext i8 @av_clip_uint8_c(i32 noundef %163) #11
  %165 = zext i8 %164 to i32
  %166 = add nsw i32 %42, %165
  %167 = add nsw i32 %166, 1
  %168 = ashr i32 %167, 1
  %169 = trunc i32 %168 to i8
  %170 = load ptr, ptr %19, align 8, !tbaa !10
  %171 = load i32, ptr %21, align 4, !tbaa !15
  %172 = sext i32 %171 to i64
  %173 = getelementptr inbounds i8, ptr %170, i64 %172
  store i8 %169, ptr %173, align 1, !tbaa !14
  br label %301

174:                                              ; preds = %33
  %175 = load ptr, ptr %17, align 8, !tbaa !88
  %176 = getelementptr inbounds i16, ptr %175, i64 0
  %177 = load i16, ptr %176, align 2, !tbaa !90
  %178 = sext i16 %177 to i32
  %179 = load ptr, ptr %20, align 8, !tbaa !10
  %180 = load i32, ptr %21, align 4, !tbaa !15
  %181 = sext i32 %180 to i64
  %182 = load i64, ptr %16, align 8, !tbaa !12
  %183 = mul nsw i64 -3, %182
  %184 = add nsw i64 %181, %183
  %185 = getelementptr inbounds i8, ptr %179, i64 %184
  %186 = load i8, ptr %185, align 1, !tbaa !14
  %187 = zext i8 %186 to i32
  %188 = mul nsw i32 %178, %187
  %189 = load ptr, ptr %17, align 8, !tbaa !88
  %190 = getelementptr inbounds i16, ptr %189, i64 1
  %191 = load i16, ptr %190, align 2, !tbaa !90
  %192 = sext i16 %191 to i32
  %193 = load ptr, ptr %20, align 8, !tbaa !10
  %194 = load i32, ptr %21, align 4, !tbaa !15
  %195 = sext i32 %194 to i64
  %196 = load i64, ptr %16, align 8, !tbaa !12
  %197 = mul nsw i64 -2, %196
  %198 = add nsw i64 %195, %197
  %199 = getelementptr inbounds i8, ptr %193, i64 %198
  %200 = load i8, ptr %199, align 1, !tbaa !14
  %201 = zext i8 %200 to i32
  %202 = mul nsw i32 %192, %201
  %203 = add nsw i32 %188, %202
  %204 = load ptr, ptr %17, align 8, !tbaa !88
  %205 = getelementptr inbounds i16, ptr %204, i64 2
  %206 = load i16, ptr %205, align 2, !tbaa !90
  %207 = sext i16 %206 to i32
  %208 = load ptr, ptr %20, align 8, !tbaa !10
  %209 = load i32, ptr %21, align 4, !tbaa !15
  %210 = sext i32 %209 to i64
  %211 = load i64, ptr %16, align 8, !tbaa !12
  %212 = mul nsw i64 -1, %211
  %213 = add nsw i64 %210, %212
  %214 = getelementptr inbounds i8, ptr %208, i64 %213
  %215 = load i8, ptr %214, align 1, !tbaa !14
  %216 = zext i8 %215 to i32
  %217 = mul nsw i32 %207, %216
  %218 = add nsw i32 %203, %217
  %219 = load ptr, ptr %17, align 8, !tbaa !88
  %220 = getelementptr inbounds i16, ptr %219, i64 3
  %221 = load i16, ptr %220, align 2, !tbaa !90
  %222 = sext i16 %221 to i32
  %223 = load ptr, ptr %20, align 8, !tbaa !10
  %224 = load i32, ptr %21, align 4, !tbaa !15
  %225 = sext i32 %224 to i64
  %226 = load i64, ptr %16, align 8, !tbaa !12
  %227 = mul nsw i64 0, %226
  %228 = add nsw i64 %225, %227
  %229 = getelementptr inbounds i8, ptr %223, i64 %228
  %230 = load i8, ptr %229, align 1, !tbaa !14
  %231 = zext i8 %230 to i32
  %232 = mul nsw i32 %222, %231
  %233 = add nsw i32 %218, %232
  %234 = load ptr, ptr %17, align 8, !tbaa !88
  %235 = getelementptr inbounds i16, ptr %234, i64 4
  %236 = load i16, ptr %235, align 2, !tbaa !90
  %237 = sext i16 %236 to i32
  %238 = load ptr, ptr %20, align 8, !tbaa !10
  %239 = load i32, ptr %21, align 4, !tbaa !15
  %240 = sext i32 %239 to i64
  %241 = load i64, ptr %16, align 8, !tbaa !12
  %242 = mul nsw i64 1, %241
  %243 = add nsw i64 %240, %242
  %244 = getelementptr inbounds i8, ptr %238, i64 %243
  %245 = load i8, ptr %244, align 1, !tbaa !14
  %246 = zext i8 %245 to i32
  %247 = mul nsw i32 %237, %246
  %248 = add nsw i32 %233, %247
  %249 = load ptr, ptr %17, align 8, !tbaa !88
  %250 = getelementptr inbounds i16, ptr %249, i64 5
  %251 = load i16, ptr %250, align 2, !tbaa !90
  %252 = sext i16 %251 to i32
  %253 = load ptr, ptr %20, align 8, !tbaa !10
  %254 = load i32, ptr %21, align 4, !tbaa !15
  %255 = sext i32 %254 to i64
  %256 = load i64, ptr %16, align 8, !tbaa !12
  %257 = mul nsw i64 2, %256
  %258 = add nsw i64 %255, %257
  %259 = getelementptr inbounds i8, ptr %253, i64 %258
  %260 = load i8, ptr %259, align 1, !tbaa !14
  %261 = zext i8 %260 to i32
  %262 = mul nsw i32 %252, %261
  %263 = add nsw i32 %248, %262
  %264 = load ptr, ptr %17, align 8, !tbaa !88
  %265 = getelementptr inbounds i16, ptr %264, i64 6
  %266 = load i16, ptr %265, align 2, !tbaa !90
  %267 = sext i16 %266 to i32
  %268 = load ptr, ptr %20, align 8, !tbaa !10
  %269 = load i32, ptr %21, align 4, !tbaa !15
  %270 = sext i32 %269 to i64
  %271 = load i64, ptr %16, align 8, !tbaa !12
  %272 = mul nsw i64 3, %271
  %273 = add nsw i64 %270, %272
  %274 = getelementptr inbounds i8, ptr %268, i64 %273
  %275 = load i8, ptr %274, align 1, !tbaa !14
  %276 = zext i8 %275 to i32
  %277 = mul nsw i32 %267, %276
  %278 = add nsw i32 %263, %277
  %279 = load ptr, ptr %17, align 8, !tbaa !88
  %280 = getelementptr inbounds i16, ptr %279, i64 7
  %281 = load i16, ptr %280, align 2, !tbaa !90
  %282 = sext i16 %281 to i32
  %283 = load ptr, ptr %20, align 8, !tbaa !10
  %284 = load i32, ptr %21, align 4, !tbaa !15
  %285 = sext i32 %284 to i64
  %286 = load i64, ptr %16, align 8, !tbaa !12
  %287 = mul nsw i64 4, %286
  %288 = add nsw i64 %285, %287
  %289 = getelementptr inbounds i8, ptr %283, i64 %288
  %290 = load i8, ptr %289, align 1, !tbaa !14
  %291 = zext i8 %290 to i32
  %292 = mul nsw i32 %282, %291
  %293 = add nsw i32 %278, %292
  %294 = add nsw i32 %293, 64
  %295 = ashr i32 %294, 7
  %296 = call zeroext i8 @av_clip_uint8_c(i32 noundef %295) #11
  %297 = load ptr, ptr %19, align 8, !tbaa !10
  %298 = load i32, ptr %21, align 4, !tbaa !15
  %299 = sext i32 %298 to i64
  %300 = getelementptr inbounds i8, ptr %297, i64 %299
  store i8 %296, ptr %300, align 1, !tbaa !14
  br label %301

301:                                              ; preds = %174, %36
  br label %302

302:                                              ; preds = %301
  %303 = load i32, ptr %21, align 4, !tbaa !15
  %304 = add nsw i32 %303, 1
  store i32 %304, ptr %21, align 4, !tbaa !15
  br label %29, !llvm.loop !154

305:                                              ; preds = %29
  %306 = load i64, ptr %11, align 8, !tbaa !12
  %307 = load ptr, ptr %19, align 8, !tbaa !10
  %308 = getelementptr inbounds i8, ptr %307, i64 %306
  store ptr %308, ptr %19, align 8, !tbaa !10
  %309 = load i64, ptr %13, align 8, !tbaa !12
  %310 = load ptr, ptr %20, align 8, !tbaa !10
  %311 = getelementptr inbounds i8, ptr %310, i64 %309
  store ptr %311, ptr %20, align 8, !tbaa !10
  call void @llvm.lifetime.end.p0(i64 4, ptr %21) #10
  br label %312

312:                                              ; preds = %305
  %313 = load i32, ptr %15, align 4, !tbaa !15
  %314 = add nsw i32 %313, -1
  store i32 %314, ptr %15, align 4, !tbaa !15
  %315 = icmp ne i32 %314, 0
  br i1 %315, label %28, label %316, !llvm.loop !155

316:                                              ; preds = %312
  call void @llvm.lifetime.end.p0(i64 8, ptr %20) #10
  call void @llvm.lifetime.end.p0(i64 8, ptr %19) #10
  ret void
}

; Function Attrs: noinline nounwind uwtable
define internal void @avg_8tap_1d_h_c(ptr noundef %0, i64 noundef %1, ptr noundef %2, i64 noundef %3, i32 noundef %4, i32 noundef %5, ptr noundef %6) #8 {
  %8 = alloca ptr, align 8
  %9 = alloca i64, align 8
  %10 = alloca ptr, align 8
  %11 = alloca i64, align 8
  %12 = alloca i32, align 4
  %13 = alloca i32, align 4
  %14 = alloca ptr, align 8
  store ptr %0, ptr %8, align 8, !tbaa !10
  store i64 %1, ptr %9, align 8, !tbaa !12
  store ptr %2, ptr %10, align 8, !tbaa !10
  store i64 %3, ptr %11, align 8, !tbaa !12
  store i32 %4, ptr %12, align 4, !tbaa !15
  store i32 %5, ptr %13, align 4, !tbaa !15
  store ptr %6, ptr %14, align 8, !tbaa !88
  %15 = load ptr, ptr %8, align 8, !tbaa !10
  %16 = load i64, ptr %9, align 8, !tbaa !12
  %17 = load ptr, ptr %10, align 8, !tbaa !10
  %18 = load i64, ptr %11, align 8, !tbaa !12
  %19 = load i32, ptr %12, align 4, !tbaa !15
  %20 = load i32, ptr %13, align 4, !tbaa !15
  %21 = load ptr, ptr %14, align 8, !tbaa !88
  call void @do_8tap_1d_c(ptr noundef %15, i64 noundef %16, ptr noundef %17, i64 noundef %18, i32 noundef %19, i32 noundef %20, i64 noundef 1, ptr noundef %21, i32 noundef 1)
  ret void
}