; Function Attrs: nofree noinline norecurse nosync nounwind memory(argmem: readwrite) uwtable
define internal fastcc void @avg_8tap_1d_h_c(ptr noundef captures(none) %0, i64 noundef %1, ptr noundef readonly captures(none) %2, i64 noundef %3, i32 noundef range(i32 4, 65) %4, i32 noundef %5, ptr noundef readonly captures(none) %6) unnamed_addr #9 {
  %8 = getelementptr inbounds nuw i8, ptr %6, i64 2
  %9 = getelementptr inbounds nuw i8, ptr %6, i64 4
  %10 = getelementptr inbounds nuw i8, ptr %6, i64 6
  %11 = getelementptr inbounds nuw i8, ptr %6, i64 8
  %12 = getelementptr inbounds nuw i8, ptr %6, i64 10
  %13 = getelementptr inbounds nuw i8, ptr %6, i64 12
  %14 = getelementptr inbounds nuw i8, ptr %6, i64 14
  %wide.trip.count = zext nneg i32 %4 to i64
  br label %15

15:                                               ; preds = %87, %7
  %.084.i = phi i32 [ %5, %7 ], [ %90, %87 ]
  %.083.i = phi ptr [ %0, %7 ], [ %88, %87 ]
  %.082.i = phi ptr [ %2, %7 ], [ %89, %87 ]
  %16 = getelementptr i8, ptr %.082.i, i64 -3
  %invariant.gep = getelementptr i8, ptr %.082.i, i64 -2
  %invariant.gep6 = getelementptr i8, ptr %.082.i, i64 -1
  %17 = getelementptr i8, ptr %.082.i, i64 1
  %18 = getelementptr i8, ptr %.082.i, i64 2
  %19 = getelementptr i8, ptr %.082.i, i64 3
  %20 = getelementptr i8, ptr %.082.i, i64 4
  br label %21

21:                                               ; preds = %15, %21
  %indvars.iv = phi i64 [ 0, %15 ], [ %indvars.iv.next, %21 ]
  %22 = getelementptr inbounds nuw i8, ptr %.083.i, i64 %indvars.iv
  %23 = load i8, ptr %22, align 1, !tbaa !8
  %24 = zext i8 %23 to i16
  %25 = load i16, ptr %6, align 2, !tbaa !80
  %26 = sext i16 %25 to i32
  %27 = getelementptr i8, ptr %16, i64 %indvars.iv
  %28 = load i8, ptr %27, align 1, !tbaa !8
  %29 = zext i8 %28 to i32
  %30 = mul nsw i32 %29, %26
  %31 = load i16, ptr %8, align 2, !tbaa !80
  %32 = sext i16 %31 to i32
  %gep = getelementptr i8, ptr %invariant.gep, i64 %indvars.iv
  %33 = load i8, ptr %gep, align 1, !tbaa !8
  %34 = zext i8 %33 to i32
  %35 = mul nsw i32 %34, %32
  %36 = load i16, ptr %9, align 2, !tbaa !80
  %37 = sext i16 %36 to i32
  %gep7 = getelementptr i8, ptr %invariant.gep6, i64 %indvars.iv
  %38 = load i8, ptr %gep7, align 1, !tbaa !8
  %39 = zext i8 %38 to i32
  %40 = mul nsw i32 %39, %37
  %41 = load i16, ptr %10, align 2, !tbaa !80
  %42 = sext i16 %41 to i32
  %43 = getelementptr inbounds nuw i8, ptr %.082.i, i64 %indvars.iv
  %44 = load i8, ptr %43, align 1, !tbaa !8
  %45 = zext i8 %44 to i32
  %46 = mul nsw i32 %45, %42
  %47 = load i16, ptr %11, align 2, !tbaa !80
  %48 = sext i16 %47 to i32
  %49 = getelementptr i8, ptr %17, i64 %indvars.iv
  %50 = load i8, ptr %49, align 1, !tbaa !8
  %51 = zext i8 %50 to i32
  %52 = mul nsw i32 %51, %48
  %53 = load i16, ptr %12, align 2, !tbaa !80
  %54 = sext i16 %53 to i32
  %55 = getelementptr i8, ptr %18, i64 %indvars.iv
  %56 = load i8, ptr %55, align 1, !tbaa !8
  %57 = zext i8 %56 to i32
  %58 = mul nsw i32 %57, %54
  %59 = load i16, ptr %13, align 2, !tbaa !80
  %60 = sext i16 %59 to i32
  %61 = getelementptr i8, ptr %19, i64 %indvars.iv
  %62 = load i8, ptr %61, align 1, !tbaa !8
  %63 = zext i8 %62 to i32
  %64 = mul nsw i32 %63, %60
  %65 = load i16, ptr %14, align 2, !tbaa !80
  %66 = sext i16 %65 to i32
  %67 = getelementptr i8, ptr %20, i64 %indvars.iv
  %68 = load i8, ptr %67, align 1, !tbaa !8
  %69 = zext i8 %68 to i32
  %70 = mul nsw i32 %69, %66
  %71 = add nsw i32 %30, 64
  %72 = add nsw i32 %71, %35
  %73 = add nsw i32 %72, %40
  %74 = add nsw i32 %73, %46
  %75 = add nsw i32 %74, %52
  %76 = add nsw i32 %75, %58
  %77 = add nsw i32 %76, %64
  %78 = add nsw i32 %77, %70
  %79 = ashr i32 %78, 7
  %.not.i87.i = icmp ult i32 %79, 256
  %isnotneg.i88.i = icmp sgt i32 %79, -1
  %80 = sext i1 %isnotneg.i88.i to i16
  %81 = trunc i32 %79 to i16
  %.0.i89.i = select i1 %.not.i87.i, i16 %81, i16 %80
  %82 = and i16 %.0.i89.i, 255
  %83 = add nuw nsw i16 %24, 1
  %84 = add nuw nsw i16 %83, %82
  %85 = lshr i16 %84, 1
  %86 = trunc nuw i16 %85 to i8
  store i8 %86, ptr %22, align 1, !tbaa !8
  %indvars.iv.next = add nuw nsw i64 %indvars.iv, 1
  %exitcond.not = icmp eq i64 %indvars.iv.next, %wide.trip.count
  br i1 %exitcond.not, label %87, label %21, !llvm.loop !189

87:                                               ; preds = %21
  %88 = getelementptr inbounds i8, ptr %.083.i, i64 %1
  %89 = getelementptr inbounds i8, ptr %.082.i, i64 %3
  %90 = add nsw i32 %.084.i, -1
  %.not.i = icmp eq i32 %90, 0
  br i1 %.not.i, label %do_8tap_1d_c.exit, label %15, !llvm.loop !190

do_8tap_1d_c.exit:                                ; preds = %87
  ret void
}